(dp0
S'pico8vol'
p1
(dp2
S'rname'
p3
S'"pico8vol"'
p4
sS'sortable'
p5
I28
sS'raw_rname'
p6
g1
sS'notnull'
p7
I00
sS'length'
p8
I512
sS'sql'
p9
S'DOUBLE'
p10
sS'unique'
p11
I00
sS'type'
p12
S'decimal(15,3)'
p13
ssS'pico4v'
p14
(dp15
g3
S'"pico4v"'
p16
sg5
I41
sg6
g14
sg7
I00
sg8
I512
sg9
S'DOUBLE'
p17
sg11
I00
sg12
g13
ssS'pico4vol'
p18
(dp19
g3
S'"pico4vol"'
p20
sg5
I24
sg6
g18
sg7
I00
sg8
I512
sg9
S'DOUBLE'
p21
sg11
I00
sg12
g13
ssS'pico2vol'
p22
(dp23
g3
S'"pico2vol"'
p24
sg5
I22
sg6
g22
sg7
I00
sg8
I512
sg9
S'DOUBLE'
p25
sg11
I00
sg12
g13
ssS'pico6v'
p26
(dp27
g3
S'"pico6v"'
p28
sg5
I43
sg6
g26
sg7
I00
sg8
I512
sg9
S'DOUBLE'
p29
sg11
I00
sg12
g13
ssS'pico8volfinal'
p30
(dp31
g3
S'"pico8volfinal"'
p32
sg5
I12
sg6
g30
sg7
I00
sg8
I512
sg9
S'DOUBLE'
p33
sg11
I00
sg12
g13
ssS'pico17v'
p34
(dp35
g3
S'"pico17v"'
p36
sg5
I54
sg6
g34
sg7
I00
sg8
I512
sg9
S'DOUBLE'
p37
sg11
I00
sg12
g13
ssS'pico5vol'
p38
(dp39
g3
S'"pico5vol"'
p40
sg5
I25
sg6
g38
sg7
I00
sg8
I512
sg9
S'DOUBLE'
p41
sg11
I00
sg12
g13
ssS'pico22v'
p42
(dp43
g3
S'"pico22v"'
p44
sg5
I59
sg6
g42
sg7
I00
sg8
I512
sg9
S'DOUBLE'
p45
sg11
I00
sg12
g13
ssS'pico11v'
p46
(dp47
g3
S'"pico11v"'
p48
sg5
I48
sg6
g46
sg7
I00
sg8
I512
sg9
S'DOUBLE'
p49
sg11
I00
sg12
g13
ssS'pico5v'
p50
(dp51
g3
S'"pico5v"'
p52
sg5
I42
sg6
g50
sg7
I00
sg8
I512
sg9
S'DOUBLE'
p53
sg11
I00
sg12
g13
ssS'pico13v'
p54
(dp55
g3
S'"pico13v"'
p56
sg5
I50
sg6
g54
sg7
I00
sg8
I512
sg9
S'DOUBLE'
p57
sg11
I00
sg12
g13
ssS'nroturno'
p58
(dp59
g3
S'"nroturno"'
p60
sg5
I1
sg6
g58
sg7
I00
sg8
I512
sg9
S'INTEGER PRIMARY KEY AUTOINCREMENT'
p61
sg11
I00
sg12
S'id'
p62
ssS'pico11volfinal'
p63
(dp64
g3
S'"pico11volfinal"'
p65
sg5
I15
sg6
g63
sg7
I00
sg8
I512
sg9
S'DOUBLE'
p66
sg11
I00
sg12
g13
ssS'pico13vol'
p67
(dp68
g3
S'"pico13vol"'
p69
sg5
I33
sg6
g67
sg7
I00
sg8
I512
sg9
S'DOUBLE'
p70
sg11
I00
sg12
g13
ssS'pico16vol'
p71
(dp72
g3
S'"pico16vol"'
p73
sg5
I36
sg6
g71
sg7
I00
sg8
I512
sg9
S'DOUBLE'
p74
sg11
I00
sg12
g13
ssS'pico32v'
p75
(dp76
g3
S'"pico32v"'
p77
sg5
I69
sg6
g75
sg7
I00
sg8
I512
sg9
S'DOUBLE'
p78
sg11
I00
sg12
g13
ssS'pico24v'
p79
(dp80
g3
S'"pico24v"'
p81
sg5
I61
sg6
g79
sg7
I00
sg8
I512
sg9
S'DOUBLE'
p82
sg11
I00
sg12
g13
ssS'pico12v'
p83
(dp84
g3
S'"pico12v"'
p85
sg5
I49
sg6
g83
sg7
I00
sg8
I512
sg9
S'DOUBLE'
p86
sg11
I00
sg12
g13
ssS'pico13volfinal'
p87
(dp88
g3
S'"pico13volfinal"'
p89
sg5
I17
sg6
g87
sg7
I00
sg8
I512
sg9
S'DOUBLE'
p90
sg11
I00
sg12
g13
ssS'pico28v'
p91
(dp92
g3
S'"pico28v"'
p93
sg5
I65
sg6
g91
sg7
I00
sg8
I512
sg9
S'DOUBLE'
p94
sg11
I00
sg12
g13
ssS'pico30v'
p95
(dp96
g3
S'"pico30v"'
p97
sg5
I67
sg6
g95
sg7
I00
sg8
I512
sg9
S'DOUBLE'
p98
sg11
I00
sg12
g13
ssS'pico26v'
p99
(dp100
g3
S'"pico26v"'
p101
sg5
I63
sg6
g99
sg7
I00
sg8
I512
sg9
S'DOUBLE'
p102
sg11
I00
sg12
g13
ssS'pico7vol'
p103
(dp104
g3
S'"pico7vol"'
p105
sg5
I27
sg6
g103
sg7
I00
sg8
I512
sg9
S'DOUBLE'
p106
sg11
I00
sg12
g13
ssS'pico15v'
p107
(dp108
g3
S'"pico15v"'
p109
sg5
I52
sg6
g107
sg7
I00
sg8
I512
sg9
S'DOUBLE'
p110
sg11
I00
sg12
g13
ssS'pico3v'
p111
(dp112
g3
S'"pico3v"'
p113
sg5
I40
sg6
g111
sg7
I00
sg8
I512
sg9
S'DOUBLE'
p114
sg11
I00
sg12
g13
ssS'pico20v'
p115
(dp116
g3
S'"pico20v"'
p117
sg5
I57
sg6
g115
sg7
I00
sg8
I512
sg9
S'DOUBLE'
p118
sg11
I00
sg12
g13
ssS'pico15vol'
p119
(dp120
g3
S'"pico15vol"'
p121
sg5
I35
sg6
g119
sg7
I00
sg8
I512
sg9
S'DOUBLE'
p122
sg11
I00
sg12
g13
ssS'pico11vol'
p123
(dp124
g3
S'"pico11vol"'
p125
sg5
I31
sg6
g123
sg7
I00
sg8
I512
sg9
S'DOUBLE'
p126
sg11
I00
sg12
g13
ssS'pico15volfinal'
p127
(dp128
g3
S'"pico15volfinal"'
p129
sg5
I19
sg6
g127
sg7
I00
sg8
I512
sg9
S'DOUBLE'
p130
sg11
I00
sg12
g13
ssS'pico1vol'
p131
(dp132
g3
S'"pico1vol"'
p133
sg5
I21
sg6
g131
sg7
I00
sg8
I512
sg9
S'DOUBLE'
p134
sg11
I00
sg12
g13
ssS'pico4volfinal'
p135
(dp136
g3
S'"pico4volfinal"'
p137
sg5
I8
sg6
g135
sg7
I00
sg8
I512
sg9
S'DOUBLE'
p138
sg11
I00
sg12
g13
ssS'pico2v'
p139
(dp140
g3
S'"pico2v"'
p141
sg5
I39
sg6
g139
sg7
I00
sg8
I512
sg9
S'DOUBLE'
p142
sg11
I00
sg12
g13
ssS'fin'
p143
(dp144
g3
S'"fin"'
p145
sg5
I3
sg6
g143
sg7
I00
sg8
I512
sg9
S'TIMESTAMP'
p146
sg11
I00
sg12
S'datetime'
p147
ssS'pico19v'
p148
(dp149
g3
S'"pico19v"'
p150
sg5
I56
sg6
g148
sg7
I00
sg8
I512
sg9
S'DOUBLE'
p151
sg11
I00
sg12
g13
ssS'pico9vol'
p152
(dp153
g3
S'"pico9vol"'
p154
sg5
I29
sg6
g152
sg7
I00
sg8
I512
sg9
S'DOUBLE'
p155
sg11
I00
sg12
g13
ssS'pico9volfinal'
p156
(dp157
g3
S'"pico9volfinal"'
p158
sg5
I13
sg6
g156
sg7
I00
sg8
I512
sg9
S'DOUBLE'
p159
sg11
I00
sg12
g13
ssS'pico12volfinal'
p160
(dp161
g3
S'"pico12volfinal"'
p162
sg5
I16
sg6
g160
sg7
I00
sg8
I512
sg9
S'DOUBLE'
p163
sg11
I00
sg12
g13
ssS'pico18v'
p164
(dp165
g3
S'"pico18v"'
p166
sg5
I55
sg6
g164
sg7
I00
sg8
I512
sg9
S'DOUBLE'
p167
sg11
I00
sg12
g13
ssS'pico29v'
p168
(dp169
g3
S'"pico29v"'
p170
sg5
I66
sg6
g168
sg7
I00
sg8
I512
sg9
S'DOUBLE'
p171
sg11
I00
sg12
g13
ssS'pico7v'
p172
(dp173
g3
S'"pico7v"'
p174
sg5
I44
sg6
g172
sg7
I00
sg8
I512
sg9
S'DOUBLE'
p175
sg11
I00
sg12
g13
ssS'pico14vol'
p176
(dp177
g3
S'"pico14vol"'
p178
sg5
I34
sg6
g176
sg7
I00
sg8
I512
sg9
S'DOUBLE'
p179
sg11
I00
sg12
g13
ssS'inicio'
p180
(dp181
g3
S'"inicio"'
p182
sg5
I2
sg6
g180
sg7
I00
sg8
I512
sg9
S'TIMESTAMP'
p183
sg11
I00
sg12
g147
ssS'pico1v'
p184
(dp185
g3
S'"pico1v"'
p186
sg5
I38
sg6
g184
sg7
I00
sg8
I512
sg9
S'DOUBLE'
p187
sg11
I00
sg12
g13
ssS'cerrado'
p188
(dp189
g3
S'"cerrado"'
p190
sg5
I4
sg6
g188
sg7
I00
sg8
I512
sg9
S'CHAR(1)'
p191
sg11
I00
sg12
S'boolean'
p192
ssS'activo'
p193
(dp194
g3
S'"activo"'
p195
sg5
I37
sg6
g193
sg7
I00
sg8
I512
sg9
S'INTEGER'
p196
sg11
I00
sg12
S'integer'
p197
ssS'pico10volfinal'
p198
(dp199
g3
S'"pico10volfinal"'
p200
sg5
I14
sg6
g198
sg7
I00
sg8
I512
sg9
S'DOUBLE'
p201
sg11
I00
sg12
g13
ssS'pico12vol'
p202
(dp203
g3
S'"pico12vol"'
p204
sg5
I32
sg6
g202
sg7
I00
sg8
I512
sg9
S'DOUBLE'
p205
sg11
I00
sg12
g13
ssS'pico10v'
p206
(dp207
g3
S'"pico10v"'
p208
sg5
I47
sg6
g206
sg7
I00
sg8
I512
sg9
S'DOUBLE'
p209
sg11
I00
sg12
g13
ssS'pico14volfinal'
p210
(dp211
g3
S'"pico14volfinal"'
p212
sg5
I18
sg6
g210
sg7
I00
sg8
I512
sg9
S'DOUBLE'
p213
sg11
I00
sg12
g13
ssS'pico9v'
p214
(dp215
g3
S'"pico9v"'
p216
sg5
I46
sg6
g214
sg7
I00
sg8
I512
sg9
S'DOUBLE'
p217
sg11
I00
sg12
g13
ssS'pico2volfinal'
p218
(dp219
g3
S'"pico2volfinal"'
p220
sg5
I6
sg6
g218
sg7
I00
sg8
I512
sg9
S'DOUBLE'
p221
sg11
I00
sg12
g13
ssS'pico5volfinal'
p222
(dp223
g3
S'"pico5volfinal"'
p224
sg5
I9
sg6
g222
sg7
I00
sg8
I512
sg9
S'DOUBLE'
p225
sg11
I00
sg12
g13
ssS'pico25v'
p226
(dp227
g3
S'"pico25v"'
p228
sg5
I62
sg6
g226
sg7
I00
sg8
I512
sg9
S'DOUBLE'
p229
sg11
I00
sg12
g13
ssS'pico6vol'
p230
(dp231
g3
S'"pico6vol"'
p232
sg5
I26
sg6
g230
sg7
I00
sg8
I512
sg9
S'DOUBLE'
p233
sg11
I00
sg12
g13
ssS'pico8v'
p234
(dp235
g3
S'"pico8v"'
p236
sg5
I45
sg6
g234
sg7
I00
sg8
I512
sg9
S'DOUBLE'
p237
sg11
I00
sg12
g13
ssS'pico31v'
p238
(dp239
g3
S'"pico31v"'
p240
sg5
I68
sg6
g238
sg7
I00
sg8
I512
sg9
S'DOUBLE'
p241
sg11
I00
sg12
g13
ssS'pico14v'
p242
(dp243
g3
S'"pico14v"'
p244
sg5
I51
sg6
g242
sg7
I00
sg8
I512
sg9
S'DOUBLE'
p245
sg11
I00
sg12
g13
ssS'pico3volfinal'
p246
(dp247
g3
S'"pico3volfinal"'
p248
sg5
I7
sg6
g246
sg7
I00
sg8
I512
sg9
S'DOUBLE'
p249
sg11
I00
sg12
g13
ssS'pico27v'
p250
(dp251
g3
S'"pico27v"'
p252
sg5
I64
sg6
g250
sg7
I00
sg8
I512
sg9
S'DOUBLE'
p253
sg11
I00
sg12
g13
ssS'pico21v'
p254
(dp255
g3
S'"pico21v"'
p256
sg5
I58
sg6
g254
sg7
I00
sg8
I512
sg9
S'DOUBLE'
p257
sg11
I00
sg12
g13
ssS'pico10vol'
p258
(dp259
g3
S'"pico10vol"'
p260
sg5
I30
sg6
g258
sg7
I00
sg8
I512
sg9
S'DOUBLE'
p261
sg11
I00
sg12
g13
ssS'pico16v'
p262
(dp263
g3
S'"pico16v"'
p264
sg5
I53
sg6
g262
sg7
I00
sg8
I512
sg9
S'DOUBLE'
p265
sg11
I00
sg12
g13
ssS'pico6volfinal'
p266
(dp267
g3
S'"pico6volfinal"'
p268
sg5
I10
sg6
g266
sg7
I00
sg8
I512
sg9
S'DOUBLE'
p269
sg11
I00
sg12
g13
ssS'pico16volfinal'
p270
(dp271
g3
S'"pico16volfinal"'
p272
sg5
I20
sg6
g270
sg7
I00
sg8
I512
sg9
S'DOUBLE'
p273
sg11
I00
sg12
g13
ssS'pico1volfinal'
p274
(dp275
g3
S'"pico1volfinal"'
p276
sg5
I5
sg6
g274
sg7
I00
sg8
I512
sg9
S'DOUBLE'
p277
sg11
I00
sg12
g13
ssS'pico23v'
p278
(dp279
g3
S'"pico23v"'
p280
sg5
I60
sg6
g278
sg7
I00
sg8
I512
sg9
S'DOUBLE'
p281
sg11
I00
sg12
g13
ssS'pico3vol'
p282
(dp283
g3
S'"pico3vol"'
p284
sg5
I23
sg6
g282
sg7
I00
sg8
I512
sg9
S'DOUBLE'
p285
sg11
I00
sg12
g13
ssS'pico7volfinal'
p286
(dp287
g3
S'"pico7volfinal"'
p288
sg5
I11
sg6
g286
sg7
I00
sg8
I512
sg9
S'DOUBLE'
p289
sg11
I00
sg12
g13
ss.