(dp0
S'pico8vol'
p1
(dp2
S'rname'
p3
S'"pico8vol"'
p4
sS'sortable'
p5
I28
sS'raw_rname'
p6
S'pico8vol'
p7
sS'notnull'
p8
I00
sS'length'
p9
I512
sS'sql'
p10
S'NUMERIC(15,3)'
p11
sS'unique'
p12
I00
sS'type'
p13
S'decimal(15,3)'
p14
ssS'pico4v'
p15
(dp16
g3
S'"pico4v"'
p17
sg5
I41
sg6
S'pico4v'
p18
sg8
I00
sg9
I512
sg10
S'NUMERIC(15,3)'
p19
sg12
I00
sg13
g14
ssS'pico4vol'
p20
(dp21
g3
S'"pico4vol"'
p22
sg5
I24
sg6
S'pico4vol'
p23
sg8
I00
sg9
I512
sg10
S'NUMERIC(15,3)'
p24
sg12
I00
sg13
g14
ssS'pico2vol'
p25
(dp26
g3
S'"pico2vol"'
p27
sg5
I22
sg6
S'pico2vol'
p28
sg8
I00
sg9
I512
sg10
S'NUMERIC(15,3)'
p29
sg12
I00
sg13
g14
ssS'pico6v'
p30
(dp31
g3
S'"pico6v"'
p32
sg5
I43
sg6
S'pico6v'
p33
sg8
I00
sg9
I512
sg10
S'NUMERIC(15,3)'
p34
sg12
I00
sg13
g14
ssS'pico8volfinal'
p35
(dp36
g3
S'"pico8volfinal"'
p37
sg5
I12
sg6
S'pico8volfinal'
p38
sg8
I00
sg9
I512
sg10
S'NUMERIC(15,3)'
p39
sg12
I00
sg13
g14
ssS'pico17v'
p40
(dp41
g3
S'"pico17v"'
p42
sg5
I54
sg6
S'pico17v'
p43
sg8
I00
sg9
I512
sg10
S'NUMERIC(15,3)'
p44
sg12
I00
sg13
g14
ssS'pico5vol'
p45
(dp46
g3
S'"pico5vol"'
p47
sg5
I25
sg6
S'pico5vol'
p48
sg8
I00
sg9
I512
sg10
S'NUMERIC(15,3)'
p49
sg12
I00
sg13
g14
ssS'pico22v'
p50
(dp51
g3
S'"pico22v"'
p52
sg5
I59
sg6
S'pico22v'
p53
sg8
I00
sg9
I512
sg10
S'NUMERIC(15,3)'
p54
sg12
I00
sg13
g14
ssS'pico11v'
p55
(dp56
g3
S'"pico11v"'
p57
sg5
I48
sg6
S'pico11v'
p58
sg8
I00
sg9
I512
sg10
S'NUMERIC(15,3)'
p59
sg12
I00
sg13
g14
ssS'pico5v'
p60
(dp61
g3
S'"pico5v"'
p62
sg5
I42
sg6
S'pico5v'
p63
sg8
I00
sg9
I512
sg10
S'NUMERIC(15,3)'
p64
sg12
I00
sg13
g14
ssS'pico13v'
p65
(dp66
g3
S'"pico13v"'
p67
sg5
I50
sg6
S'pico13v'
p68
sg8
I00
sg9
I512
sg10
S'NUMERIC(15,3)'
p69
sg12
I00
sg13
g14
ssS'nroturno'
p70
(dp71
g3
S'"nroturno"'
p72
sg5
I1
sg6
S'nroturno'
p73
sg8
I00
sg9
I512
sg10
S'SERIAL PRIMARY KEY'
p74
sg12
I00
sg13
S'id'
p75
ssS'pico11volfinal'
p76
(dp77
g3
S'"pico11volfinal"'
p78
sg5
I15
sg6
S'pico11volfinal'
p79
sg8
I00
sg9
I512
sg10
S'NUMERIC(15,3)'
p80
sg12
I00
sg13
g14
ssS'pico13vol'
p81
(dp82
g3
S'"pico13vol"'
p83
sg5
I33
sg6
S'pico13vol'
p84
sg8
I00
sg9
I512
sg10
S'NUMERIC(15,3)'
p85
sg12
I00
sg13
g14
ssS'pico16vol'
p86
(dp87
g3
S'"pico16vol"'
p88
sg5
I36
sg6
S'pico16vol'
p89
sg8
I00
sg9
I512
sg10
S'NUMERIC(15,3)'
p90
sg12
I00
sg13
g14
ssS'pico32v'
p91
(dp92
g3
S'"pico32v"'
p93
sg5
I69
sg6
S'pico32v'
p94
sg8
I00
sg9
I512
sg10
S'NUMERIC(15,3)'
p95
sg12
I00
sg13
g14
ssS'pico24v'
p96
(dp97
g3
S'"pico24v"'
p98
sg5
I61
sg6
S'pico24v'
p99
sg8
I00
sg9
I512
sg10
S'NUMERIC(15,3)'
p100
sg12
I00
sg13
g14
ssS'pico12v'
p101
(dp102
g3
S'"pico12v"'
p103
sg5
I49
sg6
S'pico12v'
p104
sg8
I00
sg9
I512
sg10
S'NUMERIC(15,3)'
p105
sg12
I00
sg13
g14
ssS'pico13volfinal'
p106
(dp107
g3
S'"pico13volfinal"'
p108
sg5
I17
sg6
S'pico13volfinal'
p109
sg8
I00
sg9
I512
sg10
S'NUMERIC(15,3)'
p110
sg12
I00
sg13
g14
ssS'pico28v'
p111
(dp112
g3
S'"pico28v"'
p113
sg5
I65
sg6
S'pico28v'
p114
sg8
I00
sg9
I512
sg10
S'NUMERIC(15,3)'
p115
sg12
I00
sg13
g14
ssS'pico30v'
p116
(dp117
g3
S'"pico30v"'
p118
sg5
I67
sg6
S'pico30v'
p119
sg8
I00
sg9
I512
sg10
S'NUMERIC(15,3)'
p120
sg12
I00
sg13
g14
ssS'pico26v'
p121
(dp122
g3
S'"pico26v"'
p123
sg5
I63
sg6
S'pico26v'
p124
sg8
I00
sg9
I512
sg10
S'NUMERIC(15,3)'
p125
sg12
I00
sg13
g14
ssS'pico7vol'
p126
(dp127
g3
S'"pico7vol"'
p128
sg5
I27
sg6
S'pico7vol'
p129
sg8
I00
sg9
I512
sg10
S'NUMERIC(15,3)'
p130
sg12
I00
sg13
g14
ssS'pico15v'
p131
(dp132
g3
S'"pico15v"'
p133
sg5
I52
sg6
S'pico15v'
p134
sg8
I00
sg9
I512
sg10
S'NUMERIC(15,3)'
p135
sg12
I00
sg13
g14
ssS'pico3v'
p136
(dp137
g3
S'"pico3v"'
p138
sg5
I40
sg6
S'pico3v'
p139
sg8
I00
sg9
I512
sg10
S'NUMERIC(15,3)'
p140
sg12
I00
sg13
g14
ssS'pico20v'
p141
(dp142
g3
S'"pico20v"'
p143
sg5
I57
sg6
S'pico20v'
p144
sg8
I00
sg9
I512
sg10
S'NUMERIC(15,3)'
p145
sg12
I00
sg13
g14
ssS'pico15vol'
p146
(dp147
g3
S'"pico15vol"'
p148
sg5
I35
sg6
S'pico15vol'
p149
sg8
I00
sg9
I512
sg10
S'NUMERIC(15,3)'
p150
sg12
I00
sg13
g14
ssS'pico11vol'
p151
(dp152
g3
S'"pico11vol"'
p153
sg5
I31
sg6
S'pico11vol'
p154
sg8
I00
sg9
I512
sg10
S'NUMERIC(15,3)'
p155
sg12
I00
sg13
g14
ssS'pico15volfinal'
p156
(dp157
g3
S'"pico15volfinal"'
p158
sg5
I19
sg6
S'pico15volfinal'
p159
sg8
I00
sg9
I512
sg10
S'NUMERIC(15,3)'
p160
sg12
I00
sg13
g14
ssS'pico1vol'
p161
(dp162
g3
S'"pico1vol"'
p163
sg5
I21
sg6
S'pico1vol'
p164
sg8
I00
sg9
I512
sg10
S'NUMERIC(15,3)'
p165
sg12
I00
sg13
g14
ssS'pico4volfinal'
p166
(dp167
g3
S'"pico4volfinal"'
p168
sg5
I8
sg6
S'pico4volfinal'
p169
sg8
I00
sg9
I512
sg10
S'NUMERIC(15,3)'
p170
sg12
I00
sg13
g14
ssS'pico2v'
p171
(dp172
g3
S'"pico2v"'
p173
sg5
I39
sg6
S'pico2v'
p174
sg8
I00
sg9
I512
sg10
S'NUMERIC(15,3)'
p175
sg12
I00
sg13
g14
ssS'fin'
p176
(dp177
g3
S'"fin"'
p178
sg5
I3
sg6
S'fin'
p179
sg8
I00
sg9
I512
sg10
S'TIMESTAMP'
p180
sg12
I00
sg13
S'datetime'
p181
ssS'pico19v'
p182
(dp183
g3
S'"pico19v"'
p184
sg5
I56
sg6
S'pico19v'
p185
sg8
I00
sg9
I512
sg10
S'NUMERIC(15,3)'
p186
sg12
I00
sg13
g14
ssS'pico9vol'
p187
(dp188
g3
S'"pico9vol"'
p189
sg5
I29
sg6
S'pico9vol'
p190
sg8
I00
sg9
I512
sg10
S'NUMERIC(15,3)'
p191
sg12
I00
sg13
g14
ssS'pico9volfinal'
p192
(dp193
g3
S'"pico9volfinal"'
p194
sg5
I13
sg6
S'pico9volfinal'
p195
sg8
I00
sg9
I512
sg10
S'NUMERIC(15,3)'
p196
sg12
I00
sg13
g14
ssS'pico12volfinal'
p197
(dp198
g3
S'"pico12volfinal"'
p199
sg5
I16
sg6
S'pico12volfinal'
p200
sg8
I00
sg9
I512
sg10
S'NUMERIC(15,3)'
p201
sg12
I00
sg13
g14
ssS'pico18v'
p202
(dp203
g3
S'"pico18v"'
p204
sg5
I55
sg6
S'pico18v'
p205
sg8
I00
sg9
I512
sg10
S'NUMERIC(15,3)'
p206
sg12
I00
sg13
g14
ssS'pico29v'
p207
(dp208
g3
S'"pico29v"'
p209
sg5
I66
sg6
S'pico29v'
p210
sg8
I00
sg9
I512
sg10
S'NUMERIC(15,3)'
p211
sg12
I00
sg13
g14
ssS'pico7v'
p212
(dp213
g3
S'"pico7v"'
p214
sg5
I44
sg6
S'pico7v'
p215
sg8
I00
sg9
I512
sg10
S'NUMERIC(15,3)'
p216
sg12
I00
sg13
g14
ssS'pico14vol'
p217
(dp218
g3
S'"pico14vol"'
p219
sg5
I34
sg6
S'pico14vol'
p220
sg8
I00
sg9
I512
sg10
S'NUMERIC(15,3)'
p221
sg12
I00
sg13
g14
ssS'inicio'
p222
(dp223
g3
S'"inicio"'
p224
sg5
I2
sg6
S'inicio'
p225
sg8
I00
sg9
I512
sg10
S'TIMESTAMP'
p226
sg12
I00
sg13
g181
ssS'pico1v'
p227
(dp228
g3
S'"pico1v"'
p229
sg5
I38
sg6
S'pico1v'
p230
sg8
I00
sg9
I512
sg10
S'NUMERIC(15,3)'
p231
sg12
I00
sg13
g14
ssS'cerrado'
p232
(dp233
g3
S'"cerrado"'
p234
sg5
I4
sg6
S'cerrado'
p235
sg8
I00
sg9
I512
sg10
S'CHAR(1)'
p236
sg12
I00
sg13
S'boolean'
p237
ssS'activo'
p238
(dp239
g3
S'"activo"'
p240
sg5
I37
sg6
S'activo'
p241
sg8
I00
sg9
I512
sg10
S'INTEGER'
p242
sg12
I00
sg13
S'integer'
p243
ssS'pico10volfinal'
p244
(dp245
g3
S'"pico10volfinal"'
p246
sg5
I14
sg6
S'pico10volfinal'
p247
sg8
I00
sg9
I512
sg10
S'NUMERIC(15,3)'
p248
sg12
I00
sg13
g14
ssS'pico12vol'
p249
(dp250
g3
S'"pico12vol"'
p251
sg5
I32
sg6
S'pico12vol'
p252
sg8
I00
sg9
I512
sg10
S'NUMERIC(15,3)'
p253
sg12
I00
sg13
g14
ssS'pico10v'
p254
(dp255
g3
S'"pico10v"'
p256
sg5
I47
sg6
S'pico10v'
p257
sg8
I00
sg9
I512
sg10
S'NUMERIC(15,3)'
p258
sg12
I00
sg13
g14
ssS'pico14volfinal'
p259
(dp260
g3
S'"pico14volfinal"'
p261
sg5
I18
sg6
S'pico14volfinal'
p262
sg8
I00
sg9
I512
sg10
S'NUMERIC(15,3)'
p263
sg12
I00
sg13
g14
ssS'pico9v'
p264
(dp265
g3
S'"pico9v"'
p266
sg5
I46
sg6
S'pico9v'
p267
sg8
I00
sg9
I512
sg10
S'NUMERIC(15,3)'
p268
sg12
I00
sg13
g14
ssS'pico2volfinal'
p269
(dp270
g3
S'"pico2volfinal"'
p271
sg5
I6
sg6
S'pico2volfinal'
p272
sg8
I00
sg9
I512
sg10
S'NUMERIC(15,3)'
p273
sg12
I00
sg13
g14
ssS'pico5volfinal'
p274
(dp275
g3
S'"pico5volfinal"'
p276
sg5
I9
sg6
S'pico5volfinal'
p277
sg8
I00
sg9
I512
sg10
S'NUMERIC(15,3)'
p278
sg12
I00
sg13
g14
ssS'pico25v'
p279
(dp280
g3
S'"pico25v"'
p281
sg5
I62
sg6
S'pico25v'
p282
sg8
I00
sg9
I512
sg10
S'NUMERIC(15,3)'
p283
sg12
I00
sg13
g14
ssS'pico6vol'
p284
(dp285
g3
S'"pico6vol"'
p286
sg5
I26
sg6
S'pico6vol'
p287
sg8
I00
sg9
I512
sg10
S'NUMERIC(15,3)'
p288
sg12
I00
sg13
g14
ssS'pico8v'
p289
(dp290
g3
S'"pico8v"'
p291
sg5
I45
sg6
S'pico8v'
p292
sg8
I00
sg9
I512
sg10
S'NUMERIC(15,3)'
p293
sg12
I00
sg13
g14
ssS'pico31v'
p294
(dp295
g3
S'"pico31v"'
p296
sg5
I68
sg6
S'pico31v'
p297
sg8
I00
sg9
I512
sg10
S'NUMERIC(15,3)'
p298
sg12
I00
sg13
g14
ssS'pico14v'
p299
(dp300
g3
S'"pico14v"'
p301
sg5
I51
sg6
S'pico14v'
p302
sg8
I00
sg9
I512
sg10
S'NUMERIC(15,3)'
p303
sg12
I00
sg13
g14
ssS'pico3volfinal'
p304
(dp305
g3
S'"pico3volfinal"'
p306
sg5
I7
sg6
S'pico3volfinal'
p307
sg8
I00
sg9
I512
sg10
S'NUMERIC(15,3)'
p308
sg12
I00
sg13
g14
ssS'pico27v'
p309
(dp310
g3
S'"pico27v"'
p311
sg5
I64
sg6
S'pico27v'
p312
sg8
I00
sg9
I512
sg10
S'NUMERIC(15,3)'
p313
sg12
I00
sg13
g14
ssS'pico21v'
p314
(dp315
g3
S'"pico21v"'
p316
sg5
I58
sg6
S'pico21v'
p317
sg8
I00
sg9
I512
sg10
S'NUMERIC(15,3)'
p318
sg12
I00
sg13
g14
ssS'pico10vol'
p319
(dp320
g3
S'"pico10vol"'
p321
sg5
I30
sg6
S'pico10vol'
p322
sg8
I00
sg9
I512
sg10
S'NUMERIC(15,3)'
p323
sg12
I00
sg13
g14
ssS'pico16v'
p324
(dp325
g3
S'"pico16v"'
p326
sg5
I53
sg6
S'pico16v'
p327
sg8
I00
sg9
I512
sg10
S'NUMERIC(15,3)'
p328
sg12
I00
sg13
g14
ssS'pico6volfinal'
p329
(dp330
g3
S'"pico6volfinal"'
p331
sg5
I10
sg6
S'pico6volfinal'
p332
sg8
I00
sg9
I512
sg10
S'NUMERIC(15,3)'
p333
sg12
I00
sg13
g14
ssS'pico16volfinal'
p334
(dp335
g3
S'"pico16volfinal"'
p336
sg5
I20
sg6
S'pico16volfinal'
p337
sg8
I00
sg9
I512
sg10
S'NUMERIC(15,3)'
p338
sg12
I00
sg13
g14
ssS'pico1volfinal'
p339
(dp340
g3
S'"pico1volfinal"'
p341
sg5
I5
sg6
S'pico1volfinal'
p342
sg8
I00
sg9
I512
sg10
S'NUMERIC(15,3)'
p343
sg12
I00
sg13
g14
ssS'pico23v'
p344
(dp345
g3
S'"pico23v"'
p346
sg5
I60
sg6
S'pico23v'
p347
sg8
I00
sg9
I512
sg10
S'NUMERIC(15,3)'
p348
sg12
I00
sg13
g14
ssS'pico3vol'
p349
(dp350
g3
S'"pico3vol"'
p351
sg5
I23
sg6
S'pico3vol'
p352
sg8
I00
sg9
I512
sg10
S'NUMERIC(15,3)'
p353
sg12
I00
sg13
g14
ssS'pico7volfinal'
p354
(dp355
g3
S'"pico7volfinal"'
p356
sg5
I11
sg6
S'pico7volfinal'
p357
sg8
I00
sg9
I512
sg10
S'NUMERIC(15,3)'
p358
sg12
I00
sg13
g14
ss.